SF:/Users/lukasz.celitan/Git/AstroX/src/backend/src/api/hello/get.rs
FN:3,_RNvXNtNtNtCs4dveHeDtRhK_7backend3api5hello3getNtB2_17json_response_getNtNtCsgVb44Zth3OK_9actix_web7service18HttpServiceFactory8register
FN:4,_RNvNvXNtNtNtCs4dveHeDtRhK_7backend3api5hello3getNtB4_17json_response_getNtNtCsgVb44Zth3OK_9actix_web7service18HttpServiceFactory8register17json_response_get
FN:14,_RNCNvNtNtNtNtCs4dveHeDtRhK_7backend3api5hello3get5testss_22test_json_response_get0Bb_
FN:14,_RNvNtNtNtNtCs4dveHeDtRhK_7backend3api5hello3get5testss_22test_json_response_get
FN:4,_RNCNvNvXNtNtNtCs4dveHeDtRhK_7backend3api5hello3getNtB6_17json_response_getNtNtCsgVb44Zth3OK_9actix_web7service18HttpServiceFactory8register17json_response_get0Bc_
FNDA:1,_RNvXNtNtNtCs4dveHeDtRhK_7backend3api5hello3getNtB2_17json_response_getNtNtCsgVb44Zth3OK_9actix_web7service18HttpServiceFactory8register
FNDA:1,_RNvNvXNtNtNtCs4dveHeDtRhK_7backend3api5hello3getNtB4_17json_response_getNtNtCsgVb44Zth3OK_9actix_web7service18HttpServiceFactory8register17json_response_get
FNDA:1,_RNCNvNtNtNtNtCs4dveHeDtRhK_7backend3api5hello3get5testss_22test_json_response_get0Bb_
FNDA:1,_RNvNtNtNtNtCs4dveHeDtRhK_7backend3api5hello3get5testss_22test_json_response_get
FNDA:1,_RNCNvNvXNtNtNtCs4dveHeDtRhK_7backend3api5hello3getNtB6_17json_response_getNtNtCsgVb44Zth3OK_9actix_web7service18HttpServiceFactory8register17json_response_get0Bc_
FNF:5
FNH:5
DA:3,1
DA:4,1
DA:5,1
DA:6,1
DA:7,1
DA:8,1
DA:14,2
BRF:0
BRH:0
LF:9
LH:9
end_of_record
SF:/Users/lukasz.celitan/Git/AstroX/src/backend/src/api/hello/post.rs
FN:3,_RNvXNtNtNtCs4dveHeDtRhK_7backend3api5hello4postNtB2_13json_responseNtNtCsgVb44Zth3OK_9actix_web7service18HttpServiceFactory8register
FN:4,_RNvNvXNtNtNtCs4dveHeDtRhK_7backend3api5hello4postNtB4_13json_responseNtNtCsgVb44Zth3OK_9actix_web7service18HttpServiceFactory8register13json_response
FN:4,_RNCNvNvXNtNtNtCs4dveHeDtRhK_7backend3api5hello4postNtB6_13json_responseNtNtCsgVb44Zth3OK_9actix_web7service18HttpServiceFactory8register13json_response0Bc_
FN:15,_RNCNvNtNtNtNtCs4dveHeDtRhK_7backend3api5hello4post5testss_18test_json_response0Bb_
FN:15,_RNvNtNtNtNtCs4dveHeDtRhK_7backend3api5hello4post5testss_18test_json_response
FNDA:1,_RNvXNtNtNtCs4dveHeDtRhK_7backend3api5hello4postNtB2_13json_responseNtNtCsgVb44Zth3OK_9actix_web7service18HttpServiceFactory8register
FNDA:1,_RNvNvXNtNtNtCs4dveHeDtRhK_7backend3api5hello4postNtB4_13json_responseNtNtCsgVb44Zth3OK_9actix_web7service18HttpServiceFactory8register13json_response
FNDA:1,_RNCNvNvXNtNtNtCs4dveHeDtRhK_7backend3api5hello4postNtB6_13json_responseNtNtCsgVb44Zth3OK_9actix_web7service18HttpServiceFactory8register13json_response0Bc_
FNDA:1,_RNCNvNtNtNtNtCs4dveHeDtRhK_7backend3api5hello4post5testss_18test_json_response0Bb_
FNDA:1,_RNvNtNtNtNtCs4dveHeDtRhK_7backend3api5hello4post5testss_18test_json_response
FNF:5
FNH:5
DA:3,1
DA:4,1
DA:5,1
DA:6,1
DA:7,1
DA:8,1
DA:15,2
BRF:0
BRH:0
LF:9
LH:9
end_of_record
SF:/Users/lukasz.celitan/Git/AstroX/src/backend/src/api/space_x/get.rs
FN:26,_RNvXNvXNvNtNtNtCs4dveHeDtRhK_7backend3api7space_x3get1__NtB7_6RocketNtNtCs7eCbzPz91QN_5serde2de11Deserialize11deserializeNtB2_14___FieldVisitorNtB16_7Visitor9expecting
FN:26,_RINvXNvXNvNtNtNtCs4dveHeDtRhK_7backend3api7space_x3get1__NtB8_6RocketNtNtCs7eCbzPz91QN_5serde2de11Deserialize11deserializeNtB3_14___FieldVisitorNtB17_7Visitor9visit_u64pEBe_
FN:26,_RINvXNvXNvNtNtNtCs4dveHeDtRhK_7backend3api7space_x3get1__NtB8_6RocketNtNtCs7eCbzPz91QN_5serde2de11Deserialize11deserializeNtB3_14___FieldVisitorNtB17_7Visitor11visit_bytespEBe_
FN:26,_RINvXNvXNvNtNtNtCs4dveHeDtRhK_7backend3api7space_x3get1__NtB8_6RocketNtNtCs7eCbzPz91QN_5serde2de11Deserialize11deserializeNtB3_14___FieldVisitorNtB17_7Visitor9visit_strNtNtCsfhoQvMk4ngU_10serde_json5error5ErrorEBe_
FN:26,_RINvXs_NvXNvNtNtNtCs4dveHeDtRhK_7backend3api7space_x3get1__NtBa_6RocketNtNtCs7eCbzPz91QN_5serde2de11Deserialize11deserializeNtB5_7___FieldB17_11deserializeINtNtCsfhoQvMk4ngU_10serde_json2de6MapKeyNtNtB2y_4read9SliceReadEEBg_
FN:26,_RINvXs0_NvXNvNtNtNtCs4dveHeDtRhK_7backend3api7space_x3get1__NtBb_6RocketNtNtCs7eCbzPz91QN_5serde2de11Deserialize11deserializeNtB6_9___VisitorNtB1a_7Visitor9visit_seqINtNtCsfhoQvMk4ngU_10serde_json2de9SeqAccessNtNtB2I_4read9SliceReadEEBh_
FN:26,_RINvXs0_NvXNvNtNtNtCs4dveHeDtRhK_7backend3api7space_x3get1__NtBb_6RocketNtNtCs7eCbzPz91QN_5serde2de11Deserialize11deserializeNtB6_9___VisitorNtB1a_7Visitor9visit_mapINtNtCsfhoQvMk4ngU_10serde_json2de9MapAccessNtNtB2I_4read9SliceReadEEBh_
FN:46,_RNCNvNvXs_NtNtNtCs4dveHeDtRhK_7backend3api7space_x3getNtB8_16json_get_space_xNtNtCsgVb44Zth3OK_9actix_web7service18HttpServiceFactory8register16json_get_space_x0Be_
FN:26,_RNvXs0_NvXNvNtNtNtCs4dveHeDtRhK_7backend3api7space_x3get1__NtBa_6RocketNtNtCs7eCbzPz91QN_5serde2de11Deserialize11deserializeNtB5_9___VisitorNtB19_7Visitor9expecting
FN:44,_RNvXs_NtNtNtCs4dveHeDtRhK_7backend3api7space_x3getNtB4_16json_get_space_xNtNtCsgVb44Zth3OK_9actix_web7service18HttpServiceFactory8register
FN:46,_RNvNvXs_NtNtNtCs4dveHeDtRhK_7backend3api7space_x3getNtB6_16json_get_space_xNtNtCsgVb44Zth3OK_9actix_web7service18HttpServiceFactory8register16json_get_space_x
FN:67,_RNvNtNtNtNtCs4dveHeDtRhK_7backend3api7space_x3get5testss_21test_json_get_space_x
FN:67,_RNCNvNtNtNtNtCs4dveHeDtRhK_7backend3api7space_x3get5testss_21test_json_get_space_x0Bb_
FNDA:0,_RNvXNvXNvNtNtNtCs4dveHeDtRhK_7backend3api7space_x3get1__NtB7_6RocketNtNtCs7eCbzPz91QN_5serde2de11Deserialize11deserializeNtB2_14___FieldVisitorNtB16_7Visitor9expecting
FNDA:0,_RINvXNvXNvNtNtNtCs4dveHeDtRhK_7backend3api7space_x3get1__NtB8_6RocketNtNtCs7eCbzPz91QN_5serde2de11Deserialize11deserializeNtB3_14___FieldVisitorNtB17_7Visitor9visit_u64pEBe_
FNDA:0,_RINvXNvXNvNtNtNtCs4dveHeDtRhK_7backend3api7space_x3get1__NtB8_6RocketNtNtCs7eCbzPz91QN_5serde2de11Deserialize11deserializeNtB3_14___FieldVisitorNtB17_7Visitor11visit_bytespEBe_
FNDA:148,_RINvXNvXNvNtNtNtCs4dveHeDtRhK_7backend3api7space_x3get1__NtB8_6RocketNtNtCs7eCbzPz91QN_5serde2de11Deserialize11deserializeNtB3_14___FieldVisitorNtB17_7Visitor9visit_strNtNtCsfhoQvMk4ngU_10serde_json5error5ErrorEBe_
FNDA:148,_RINvXs_NvXNvNtNtNtCs4dveHeDtRhK_7backend3api7space_x3get1__NtBa_6RocketNtNtCs7eCbzPz91QN_5serde2de11Deserialize11deserializeNtB5_7___FieldB17_11deserializeINtNtCsfhoQvMk4ngU_10serde_json2de6MapKeyNtNtB2y_4read9SliceReadEEBg_
FNDA:0,_RINvXs0_NvXNvNtNtNtCs4dveHeDtRhK_7backend3api7space_x3get1__NtBb_6RocketNtNtCs7eCbzPz91QN_5serde2de11Deserialize11deserializeNtB6_9___VisitorNtB1a_7Visitor9visit_seqINtNtCsfhoQvMk4ngU_10serde_json2de9SeqAccessNtNtB2I_4read9SliceReadEEBh_
FNDA:8,_RINvXs0_NvXNvNtNtNtCs4dveHeDtRhK_7backend3api7space_x3get1__NtBb_6RocketNtNtCs7eCbzPz91QN_5serde2de11Deserialize11deserializeNtB6_9___VisitorNtB1a_7Visitor9visit_mapINtNtCsfhoQvMk4ngU_10serde_json2de9MapAccessNtNtB2I_4read9SliceReadEEBh_
FNDA:1,_RNCNvNvXs_NtNtNtCs4dveHeDtRhK_7backend3api7space_x3getNtB8_16json_get_space_xNtNtCsgVb44Zth3OK_9actix_web7service18HttpServiceFactory8register16json_get_space_x0Be_
FNDA:0,_RNvXs0_NvXNvNtNtNtCs4dveHeDtRhK_7backend3api7space_x3get1__NtBa_6RocketNtNtCs7eCbzPz91QN_5serde2de11Deserialize11deserializeNtB5_9___VisitorNtB19_7Visitor9expecting
FNDA:1,_RNvXs_NtNtNtCs4dveHeDtRhK_7backend3api7space_x3getNtB4_16json_get_space_xNtNtCsgVb44Zth3OK_9actix_web7service18HttpServiceFactory8register
FNDA:1,_RNvNvXs_NtNtNtCs4dveHeDtRhK_7backend3api7space_x3getNtB6_16json_get_space_xNtNtCsgVb44Zth3OK_9actix_web7service18HttpServiceFactory8register16json_get_space_x
FNDA:1,_RNvNtNtNtNtCs4dveHeDtRhK_7backend3api7space_x3get5testss_21test_json_get_space_x
FNDA:1,_RNCNvNtNtNtNtCs4dveHeDtRhK_7backend3api7space_x3get5testss_21test_json_get_space_x0Bb_
FNF:6
FNH:6
DA:26,156
DA:44,1
DA:46,1
DA:47,7
DA:49,1
DA:50,1
DA:51,1
DA:53,1
DA:54,1
DA:55,0
DA:58,0
DA:60,1
DA:67,2
BRF:0
BRH:0
LF:15
LH:13
end_of_record
SF:/Users/lukasz.celitan/Git/AstroX/src/backend/src/args/collect_args.rs
FN:24,_RNvNtNtCs4dveHeDtRhK_7backend4args12collect_args12collect_args
FN:73,_RNvNtNtNtCs4dveHeDtRhK_7backend4args12collect_args5testss_25test_collect_args_default
FN:82,_RNvNtNtNtCs4dveHeDtRhK_7backend4args12collect_args5testss_21test_collect_prod_arg
FNDA:2,_RNvNtNtCs4dveHeDtRhK_7backend4args12collect_args12collect_args
FNDA:1,_RNvNtNtNtCs4dveHeDtRhK_7backend4args12collect_args5testss_25test_collect_args_default
FNDA:1,_RNvNtNtNtCs4dveHeDtRhK_7backend4args12collect_args5testss_21test_collect_prod_arg
FNF:3
FNH:3
DA:24,2
DA:25,2
DA:26,2
DA:27,2
DA:28,2
DA:30,7
DA:31,5
DA:32,1
DA:33,1
DA:34,1
DA:35,1
DA:36,4
DA:38,5
DA:39,1
DA:40,1
DA:41,1
DA:42,1
DA:43,4
DA:45,5
DA:46,1
DA:47,1
DA:48,1
DA:49,1
DA:50,4
DA:52,5
DA:53,1
DA:54,1
DA:55,1
DA:56,1
DA:57,4
DA:60,2
DA:61,2
DA:62,2
DA:63,2
DA:64,2
DA:65,2
DA:66,2
DA:73,1
DA:74,1
DA:75,1
DA:76,1
DA:77,1
DA:78,1
DA:79,1
DA:82,1
DA:83,1
DA:84,1
DA:85,1
DA:86,1
DA:87,1
DA:88,1
DA:89,1
DA:90,1
DA:91,1
DA:92,1
DA:93,1
DA:94,1
DA:95,1
BRF:0
BRH:0
LF:58
LH:58
end_of_record
SF:/Users/lukasz.celitan/Git/AstroX/src/backend/src/auth/auth_middleware.rs
FN:200,_RNCNvNtNtNtCs4dveHeDtRhK_7backend4auth15auth_middleware5tests10test_route0B9_
FN:166,_RNCNvNtNtNtCs4dveHeDtRhK_7backend4auth15auth_middleware5testss_24test_match_glob_patterns0B9_
FN:197,_RNCNCNvNtNtNtCs4dveHeDtRhK_7backend4auth15auth_middleware5testss_24test_match_glob_patterns00Bb_
FN:204,_RNCNvNtNtNtCs4dveHeDtRhK_7backend4auth15auth_middleware5testss_25test_middleware_protected0B9_
FN:222,_RNCNvNtNtNtCs4dveHeDtRhK_7backend4auth15auth_middleware5testss_27test_middleware_passthrough0B9_
FN:240,_RNCNvNtNtNtCs4dveHeDtRhK_7backend4auth15auth_middleware5testss_23test_middleware_success0B9_
FN:280,_RNCNCNvNtNtNtCs4dveHeDtRhK_7backend4auth15auth_middleware5testss_23test_middleware_success00Bb_
FN:57,_RNvXNtNtCs4dveHeDtRhK_7backend4auth15auth_middlewareNtB2_14AuthenticationINtNtCsaEtXNEcoikq_13actix_service9transform9TransformINtNtCs8jIaGIFrmcL_13actix_session10middleware22InnerSessionMiddlewareINtNtCsdD9m1OONXpT_24actix_web_flash_messages10middleware23FlashMessagesMiddlewareNtNtCsgVb44Zth3OK_9actix_web11app_service10AppRoutingENtNtNtB26_7storage6cookie18CookieSessionStoreENtNtB4x_7service14ServiceRequestE13new_transformB6_
FN:57,_RNvXNtNtCs4dveHeDtRhK_7backend4auth15auth_middlewareNtB2_14AuthenticationINtNtCsaEtXNEcoikq_13actix_service9transform9TransformINtNtCsgGH9L5q1LOH_10actix_cors10middleware14CorsMiddlewareNtNtCsgVb44Zth3OK_9actix_web11app_service10AppRoutingENtNtB32_7service14ServiceRequestE13new_transformB6_
FN:85,_RNvXs_NtNtCs4dveHeDtRhK_7backend4auth15auth_middlewareINtB4_24AuthenticationMiddlewareINtNtCs8jIaGIFrmcL_13actix_session10middleware22InnerSessionMiddlewareINtNtCsdD9m1OONXpT_24actix_web_flash_messages10middleware23FlashMessagesMiddlewareNtNtCsgVb44Zth3OK_9actix_web11app_service10AppRoutingENtNtNtB1r_7storage6cookie18CookieSessionStoreEEINtCsaEtXNEcoikq_13actix_service7ServiceNtNtB3S_7service14ServiceRequestE4callB8_
FN:85,_RNvXs_NtNtCs4dveHeDtRhK_7backend4auth15auth_middlewareINtB4_24AuthenticationMiddlewareINtNtCsgGH9L5q1LOH_10actix_cors10middleware14CorsMiddlewareNtNtCsgVb44Zth3OK_9actix_web11app_service10AppRoutingEEINtCsaEtXNEcoikq_13actix_service7ServiceNtNtB2n_7service14ServiceRequestE4callB8_
FN:89,_RNCNvXs_NtNtCs4dveHeDtRhK_7backend4auth15auth_middlewareINtB6_24AuthenticationMiddlewareINtNtCs8jIaGIFrmcL_13actix_session10middleware22InnerSessionMiddlewareINtNtCsdD9m1OONXpT_24actix_web_flash_messages10middleware23FlashMessagesMiddlewareNtNtCsgVb44Zth3OK_9actix_web11app_service10AppRoutingENtNtNtB1t_7storage6cookie18CookieSessionStoreEEINtCsaEtXNEcoikq_13actix_service7ServiceNtNtB3U_7service14ServiceRequestE4call0Ba_
FN:89,_RNCNvXs_NtNtCs4dveHeDtRhK_7backend4auth15auth_middlewareINtB6_24AuthenticationMiddlewareINtNtCsgGH9L5q1LOH_10actix_cors10middleware14CorsMiddlewareNtNtCsgVb44Zth3OK_9actix_web11app_service10AppRoutingEEINtCsaEtXNEcoikq_13actix_service7ServiceNtNtB2p_7service14ServiceRequestE4call0Ba_
FN:129,_RNvXs0_NtNtCs4dveHeDtRhK_7backend4auth15auth_middlewareINtB5_20AuthenticationFutureINtNtCs8jIaGIFrmcL_13actix_session10middleware22InnerSessionMiddlewareINtNtCsdD9m1OONXpT_24actix_web_flash_messages10middleware23FlashMessagesMiddlewareNtNtCsgVb44Zth3OK_9actix_web11app_service10AppRoutingENtNtNtB1o_7storage6cookie18CookieSessionStoreENtNtNtCsiiB1DREozie_10actix_http4body5boxed7BoxBodyENtNtNtCsliVzVx4luf9_4core6future6future6Future4pollB9_
FN:129,_RNvXs0_NtNtCs4dveHeDtRhK_7backend4auth15auth_middlewareINtB5_20AuthenticationFutureINtNtCsgGH9L5q1LOH_10actix_cors10middleware14CorsMiddlewareNtNtCsgVb44Zth3OK_9actix_web11app_service10AppRoutingEINtNtNtCsiiB1DREozie_10actix_http4body6either10EitherBodyNtNtB3d_5boxed7BoxBodyEENtNtNtCsliVzVx4luf9_4core6future6future6Future4pollB9_
FN:112,_RNvMNvNtNtCs4dveHeDtRhK_7backend4auth15auth_middleware1__INtB4_20AuthenticationFutureINtNtCs8jIaGIFrmcL_13actix_session10middleware22InnerSessionMiddlewareINtNtCsdD9m1OONXpT_24actix_web_flash_messages10middleware23FlashMessagesMiddlewareNtNtCsgVb44Zth3OK_9actix_web11app_service10AppRoutingENtNtNtB1q_7storage6cookie18CookieSessionStoreENtNtNtCsiiB1DREozie_10actix_http4body5boxed7BoxBodyE7projectB8_
FN:112,_RNvMNvNtNtCs4dveHeDtRhK_7backend4auth15auth_middleware1__INtB4_20AuthenticationFutureINtNtCsgGH9L5q1LOH_10actix_cors10middleware14CorsMiddlewareNtNtCsgVb44Zth3OK_9actix_web11app_service10AppRoutingEINtNtNtCsiiB1DREozie_10actix_http4body6either10EitherBodyNtNtB3f_5boxed7BoxBodyEE7projectB8_
FN:139,_RNvNtNtCs4dveHeDtRhK_7backend4auth15auth_middleware19match_glob_patterns
FN:81,_RNvXININtNtCs4dveHeDtRhK_7backend4auth15auth_middlewares_0ppEINtB5_24AuthenticationMiddlewarepEINtCsaEtXNEcoikq_13actix_service7ServiceNtNtCsgVb44Zth3OK_9actix_web7service14ServiceRequestE10poll_readyB9_
FN:112,_RNvMNvNtNtCs4dveHeDtRhK_7backend4auth15auth_middleware1__INtB4_20AuthenticationFutureppE11project_refB8_
FN:112,_RINvNvNtNtCs4dveHeDtRhK_7backend4auth15auth_middleware1__24___assert_not_repr_packedppEB8_
FN:112,_RNvXININvNtNtCs4dveHeDtRhK_7backend4auth15auth_middleware1__s3_0ppEINtB7_20AuthenticationFutureppENtNtCsduTjajoCyfh_11pin_project9___private10PinnedDrop4dropBb_
FN:200,_RNvNtNtNtCs4dveHeDtRhK_7backend4auth15auth_middleware5tests10test_route
FN:166,_RNvNtNtNtCs4dveHeDtRhK_7backend4auth15auth_middleware5testss_24test_match_glob_patterns
FN:204,_RNvNtNtNtCs4dveHeDtRhK_7backend4auth15auth_middleware5testss_25test_middleware_protected
FN:222,_RNvNtNtNtCs4dveHeDtRhK_7backend4auth15auth_middleware5testss_27test_middleware_passthrough
FN:240,_RNvNtNtNtCs4dveHeDtRhK_7backend4auth15auth_middleware5testss_23test_middleware_success
FNDA:2,_RNCNvNtNtNtCs4dveHeDtRhK_7backend4auth15auth_middleware5tests10test_route0B9_
FNDA:1,_RNCNvNtNtNtCs4dveHeDtRhK_7backend4auth15auth_middleware5testss_24test_match_glob_patterns0B9_
FNDA:1,_RNCNCNvNtNtNtCs4dveHeDtRhK_7backend4auth15auth_middleware5testss_24test_match_glob_patterns00Bb_
FNDA:1,_RNCNvNtNtNtCs4dveHeDtRhK_7backend4auth15auth_middleware5testss_25test_middleware_protected0B9_
FNDA:1,_RNCNvNtNtNtCs4dveHeDtRhK_7backend4auth15auth_middleware5testss_27test_middleware_passthrough0B9_
FNDA:1,_RNCNvNtNtNtCs4dveHeDtRhK_7backend4auth15auth_middleware5testss_23test_middleware_success0B9_
FNDA:2,_RNCNCNvNtNtNtCs4dveHeDtRhK_7backend4auth15auth_middleware5testss_23test_middleware_success00Bb_
FNDA:2,_RNvXNtNtCs4dveHeDtRhK_7backend4auth15auth_middlewareNtB2_14AuthenticationINtNtCsaEtXNEcoikq_13actix_service9transform9TransformINtNtCs8jIaGIFrmcL_13actix_session10middleware22InnerSessionMiddlewareINtNtCsdD9m1OONXpT_24actix_web_flash_messages10middleware23FlashMessagesMiddlewareNtNtCsgVb44Zth3OK_9actix_web11app_service10AppRoutingENtNtNtB26_7storage6cookie18CookieSessionStoreENtNtB4x_7service14ServiceRequestE13new_transformB6_
FNDA:1,_RNvXNtNtCs4dveHeDtRhK_7backend4auth15auth_middlewareNtB2_14AuthenticationINtNtCsaEtXNEcoikq_13actix_service9transform9TransformINtNtCsgGH9L5q1LOH_10actix_cors10middleware14CorsMiddlewareNtNtCsgVb44Zth3OK_9actix_web11app_service10AppRoutingENtNtB32_7service14ServiceRequestE13new_transformB6_
FNDA:2,_RNvXs_NtNtCs4dveHeDtRhK_7backend4auth15auth_middlewareINtB4_24AuthenticationMiddlewareINtNtCs8jIaGIFrmcL_13actix_session10middleware22InnerSessionMiddlewareINtNtCsdD9m1OONXpT_24actix_web_flash_messages10middleware23FlashMessagesMiddlewareNtNtCsgVb44Zth3OK_9actix_web11app_service10AppRoutingENtNtNtB1r_7storage6cookie18CookieSessionStoreEEINtCsaEtXNEcoikq_13actix_service7ServiceNtNtB3S_7service14ServiceRequestE4callB8_
FNDA:2,_RNvXs_NtNtCs4dveHeDtRhK_7backend4auth15auth_middlewareINtB4_24AuthenticationMiddlewareINtNtCsgGH9L5q1LOH_10actix_cors10middleware14CorsMiddlewareNtNtCsgVb44Zth3OK_9actix_web11app_service10AppRoutingEEINtCsaEtXNEcoikq_13actix_service7ServiceNtNtB2n_7service14ServiceRequestE4callB8_
FNDA:2,_RNCNvXs_NtNtCs4dveHeDtRhK_7backend4auth15auth_middlewareINtB6_24AuthenticationMiddlewareINtNtCs8jIaGIFrmcL_13actix_session10middleware22InnerSessionMiddlewareINtNtCsdD9m1OONXpT_24actix_web_flash_messages10middleware23FlashMessagesMiddlewareNtNtCsgVb44Zth3OK_9actix_web11app_service10AppRoutingENtNtNtB1t_7storage6cookie18CookieSessionStoreEEINtCsaEtXNEcoikq_13actix_service7ServiceNtNtB3U_7service14ServiceRequestE4call0Ba_
FNDA:2,_RNCNvXs_NtNtCs4dveHeDtRhK_7backend4auth15auth_middlewareINtB6_24AuthenticationMiddlewareINtNtCsgGH9L5q1LOH_10actix_cors10middleware14CorsMiddlewareNtNtCsgVb44Zth3OK_9actix_web11app_service10AppRoutingEEINtCsaEtXNEcoikq_13actix_service7ServiceNtNtB2p_7service14ServiceRequestE4call0Ba_
FNDA:1,_RNvXs0_NtNtCs4dveHeDtRhK_7backend4auth15auth_middlewareINtB5_20AuthenticationFutureINtNtCs8jIaGIFrmcL_13actix_session10middleware22InnerSessionMiddlewareINtNtCsdD9m1OONXpT_24actix_web_flash_messages10middleware23FlashMessagesMiddlewareNtNtCsgVb44Zth3OK_9actix_web11app_service10AppRoutingENtNtNtB1o_7storage6cookie18CookieSessionStoreENtNtNtCsiiB1DREozie_10actix_http4body5boxed7BoxBodyENtNtNtCsliVzVx4luf9_4core6future6future6Future4pollB9_
FNDA:2,_RNvXs0_NtNtCs4dveHeDtRhK_7backend4auth15auth_middlewareINtB5_20AuthenticationFutureINtNtCsgGH9L5q1LOH_10actix_cors10middleware14CorsMiddlewareNtNtCsgVb44Zth3OK_9actix_web11app_service10AppRoutingEINtNtNtCsiiB1DREozie_10actix_http4body6either10EitherBodyNtNtB3d_5boxed7BoxBodyEENtNtNtCsliVzVx4luf9_4core6future6future6Future4pollB9_
FNDA:1,_RNvMNvNtNtCs4dveHeDtRhK_7backend4auth15auth_middleware1__INtB4_20AuthenticationFutureINtNtCs8jIaGIFrmcL_13actix_session10middleware22InnerSessionMiddlewareINtNtCsdD9m1OONXpT_24actix_web_flash_messages10middleware23FlashMessagesMiddlewareNtNtCsgVb44Zth3OK_9actix_web11app_service10AppRoutingENtNtNtB1q_7storage6cookie18CookieSessionStoreENtNtNtCsiiB1DREozie_10actix_http4body5boxed7BoxBodyE7projectB8_
FNDA:2,_RNvMNvNtNtCs4dveHeDtRhK_7backend4auth15auth_middleware1__INtB4_20AuthenticationFutureINtNtCsgGH9L5q1LOH_10actix_cors10middleware14CorsMiddlewareNtNtCsgVb44Zth3OK_9actix_web11app_service10AppRoutingEINtNtNtCsiiB1DREozie_10actix_http4body6either10EitherBodyNtNtB3f_5boxed7BoxBodyEE7projectB8_
FNDA:14,_RNvNtNtCs4dveHeDtRhK_7backend4auth15auth_middleware19match_glob_patterns
FNDA:0,_RNvXININtNtCs4dveHeDtRhK_7backend4auth15auth_middlewares_0ppEINtB5_24AuthenticationMiddlewarepEINtCsaEtXNEcoikq_13actix_service7ServiceNtNtCsgVb44Zth3OK_9actix_web7service14ServiceRequestE10poll_readyB9_
FNDA:0,_RNvMNvNtNtCs4dveHeDtRhK_7backend4auth15auth_middleware1__INtB4_20AuthenticationFutureppE11project_refB8_
FNDA:0,_RINvNvNtNtCs4dveHeDtRhK_7backend4auth15auth_middleware1__24___assert_not_repr_packedppEB8_
FNDA:0,_RNvXININvNtNtCs4dveHeDtRhK_7backend4auth15auth_middleware1__s3_0ppEINtB7_20AuthenticationFutureppENtNtCsduTjajoCyfh_11pin_project9___private10PinnedDrop4dropBb_
FNDA:2,_RNvNtNtNtCs4dveHeDtRhK_7backend4auth15auth_middleware5tests10test_route
FNDA:1,_RNvNtNtNtCs4dveHeDtRhK_7backend4auth15auth_middleware5testss_24test_match_glob_patterns
FNDA:1,_RNvNtNtNtCs4dveHeDtRhK_7backend4auth15auth_middleware5testss_25test_middleware_protected
FNDA:1,_RNvNtNtNtCs4dveHeDtRhK_7backend4auth15auth_middleware5testss_27test_middleware_passthrough
FNDA:1,_RNvNtNtNtCs4dveHeDtRhK_7backend4auth15auth_middleware5testss_23test_middleware_success
FNF:19
FNH:18
DA:57,3
DA:58,3
DA:59,3
DA:60,3
DA:61,3
DA:62,3
DA:81,0
DA:82,0
DA:83,0
DA:85,4
DA:86,4
DA:87,4
DA:88,4
DA:89,4
DA:90,4
DA:91,2
DA:92,1
DA:93,1
DA:94,1
DA:95,1
DA:97,1
DA:98,1
DA:99,1
DA:100,1
DA:101,1
DA:104,2
DA:105,2
DA:106,2
DA:107,2
DA:109,4
DA:112,3
DA:129,3
DA:130,3
DA:131,3
DA:132,0
DA:135,3
DA:136,3
DA:139,14
DA:140,14
DA:142,34
DA:143,21
DA:144,20
DA:145,20
DA:146,1
DA:149,13
DA:150,13
DA:151,13
DA:166,2
DA:197,1
DA:200,2
DA:201,2
DA:202,2
DA:204,2
DA:222,2
DA:240,2
DA:280,2
DA:281,2
DA:282,2
DA:283,2
BRF:0
BRH:0
LF:65
LH:57
end_of_record
SF:/Users/lukasz.celitan/Git/AstroX/src/backend/src/cors/get_cors_options.rs
FN:46,_RNCNvNtNtNtCs4dveHeDtRhK_7backend4cors16get_cors_options5tests12manual_hello0B9_
FN:50,_RNCNvNtNtNtCs4dveHeDtRhK_7backend4cors16get_cors_options5testss_19test_index_prod_get0B9_
FN:69,_RNCNvNtNtNtCs4dveHeDtRhK_7backend4cors16get_cors_options5testss_18test_index_dev_get0B9_
FN:23,_RNvNtNtCs4dveHeDtRhK_7backend4cors16get_cors_options16get_cors_options
FN:46,_RNvNtNtNtCs4dveHeDtRhK_7backend4cors16get_cors_options5tests12manual_hello
FN:50,_RNvNtNtNtCs4dveHeDtRhK_7backend4cors16get_cors_options5testss_19test_index_prod_get
FN:69,_RNvNtNtNtCs4dveHeDtRhK_7backend4cors16get_cors_options5testss_18test_index_dev_get
FNDA:2,_RNCNvNtNtNtCs4dveHeDtRhK_7backend4cors16get_cors_options5tests12manual_hello0B9_
FNDA:1,_RNCNvNtNtNtCs4dveHeDtRhK_7backend4cors16get_cors_options5testss_19test_index_prod_get0B9_
FNDA:1,_RNCNvNtNtNtCs4dveHeDtRhK_7backend4cors16get_cors_options5testss_18test_index_dev_get0B9_
FNDA:3,_RNvNtNtCs4dveHeDtRhK_7backend4cors16get_cors_options16get_cors_options
FNDA:2,_RNvNtNtNtCs4dveHeDtRhK_7backend4cors16get_cors_options5tests12manual_hello
FNDA:1,_RNvNtNtNtCs4dveHeDtRhK_7backend4cors16get_cors_options5testss_19test_index_prod_get
FNDA:1,_RNvNtNtNtCs4dveHeDtRhK_7backend4cors16get_cors_options5testss_18test_index_dev_get
FNF:7
FNH:7
DA:23,3
DA:24,3
DA:25,2
DA:26,2
DA:27,2
DA:28,2
DA:29,2
DA:30,2
DA:32,1
DA:33,1
DA:34,1
DA:35,1
DA:36,1
DA:38,3
DA:46,2
DA:47,2
DA:48,2
DA:50,2
DA:69,2
BRF:0
BRH:0
LF:22
LH:22
end_of_record
SF:/Users/lukasz.celitan/Git/AstroX/src/backend/src/main.rs
FN:26,_RNvCs4dveHeDtRhK_7backend4main
FN:26,_RNCNvCs4dveHeDtRhK_7backend4main0B3_
FN:38,_RNCNCNvCs4dveHeDtRhK_7backend4main00B5_
FN:61,_RNCNCNCNvCs4dveHeDtRhK_7backend4main000B7_
FN:56,_RNCNCNCNCNvCs4dveHeDtRhK_7backend4main0000B9_
FN:76,_RNCNCNvCs4dveHeDtRhK_7backend4main0s_0B5_
FNDA:0,_RNvCs4dveHeDtRhK_7backend4main
FNDA:0,_RNCNvCs4dveHeDtRhK_7backend4main0B3_
FNDA:0,_RNCNCNvCs4dveHeDtRhK_7backend4main00B5_
FNDA:0,_RNCNCNCNvCs4dveHeDtRhK_7backend4main000B7_
FNDA:0,_RNCNCNCNCNvCs4dveHeDtRhK_7backend4main0000B9_
FNDA:0,_RNCNCNvCs4dveHeDtRhK_7backend4main0s_0B5_
FNF:6
FNH:0
DA:26,0
DA:38,0
DA:39,0
DA:40,0
DA:41,0
DA:42,0
DA:43,0
DA:44,0
DA:45,0
DA:46,0
DA:47,0
DA:48,0
DA:49,0
DA:50,0
DA:51,0
DA:52,0
DA:53,0
DA:54,0
DA:55,0
DA:56,0
DA:57,0
DA:58,0
DA:59,0
DA:60,0
DA:61,0
DA:62,0
DA:63,0
DA:64,0
DA:65,0
DA:66,0
DA:67,0
DA:68,0
DA:69,0
DA:70,0
DA:71,0
DA:76,0
DA:77,0
DA:78,0
BRF:0
BRH:0
LF:42
LH:0
end_of_record
SF:/Users/lukasz.celitan/Git/AstroX/src/backend/src/session/flash_messages.rs
FN:5,_RNvNtNtCs4dveHeDtRhK_7backend7session14flash_messages21set_up_flash_messages
FNDA:9,_RNvNtNtCs4dveHeDtRhK_7backend7session14flash_messages21set_up_flash_messages
FNF:1
FNH:1
DA:5,9
DA:6,9
DA:7,9
DA:8,9
DA:9,9
DA:10,9
DA:11,9
BRF:0
BRH:0
LF:7
LH:7
end_of_record
SF:/Users/lukasz.celitan/Git/AstroX/src/backend/src/session/session_middleware.rs
FN:31,_RNvMNtNtCs4dveHeDtRhK_7backend7session18session_middlewareNtB2_4User12authenticate
FN:57,_RNvNtNtCs4dveHeDtRhK_7backend7session18session_middleware18session_middleware
FN:72,_RNvNtNtNtCs4dveHeDtRhK_7backend7session18session_middleware5testss_40test_user_authenticate_valid_credentials
FN:90,_RNvNtNtNtCs4dveHeDtRhK_7backend7session18session_middleware5testss_39test_user_authenticate_invalid_username
FN:108,_RNvNtNtNtCs4dveHeDtRhK_7backend7session18session_middleware5testss_39test_user_authenticate_invalid_password
FN:9,_RNvXNvXNvNtNtCs4dveHeDtRhK_7backend7session18session_middleware1__NtB7_11CredentialsNtNtCs7eCbzPz91QN_5serde2de11Deserialize11deserializeNtB2_14___FieldVisitorNtB1m_7Visitor9expecting
FN:9,_RINvXNvXNvNtNtCs4dveHeDtRhK_7backend7session18session_middleware1__NtB8_11CredentialsNtNtCs7eCbzPz91QN_5serde2de11Deserialize11deserializeNtB3_14___FieldVisitorNtB1n_7Visitor9visit_u64pEBc_
FN:9,_RINvXNvXNvNtNtCs4dveHeDtRhK_7backend7session18session_middleware1__NtB8_11CredentialsNtNtCs7eCbzPz91QN_5serde2de11Deserialize11deserializeNtB3_14___FieldVisitorNtB1n_7Visitor9visit_strpEBc_
FN:9,_RINvXNvXNvNtNtCs4dveHeDtRhK_7backend7session18session_middleware1__NtB8_11CredentialsNtNtCs7eCbzPz91QN_5serde2de11Deserialize11deserializeNtB3_14___FieldVisitorNtB1n_7Visitor11visit_bytespEBc_
FN:9,_RINvXs_NvXNvNtNtCs4dveHeDtRhK_7backend7session18session_middleware1__NtBa_11CredentialsNtNtCs7eCbzPz91QN_5serde2de11Deserialize11deserializeNtB5_7___FieldB1n_11deserializepEBe_
FN:9,_RNvXs0_NvXNvNtNtCs4dveHeDtRhK_7backend7session18session_middleware1__NtBa_11CredentialsNtNtCs7eCbzPz91QN_5serde2de11Deserialize11deserializeNtB5_9___VisitorNtB1p_7Visitor9expecting
FN:9,_RINvXs0_NvXNvNtNtCs4dveHeDtRhK_7backend7session18session_middleware1__NtBb_11CredentialsNtNtCs7eCbzPz91QN_5serde2de11Deserialize11deserializeNtB6_9___VisitorNtB1q_7Visitor9visit_seqpEBf_
FN:9,_RINvXs0_NvXNvNtNtCs4dveHeDtRhK_7backend7session18session_middleware1__NtBb_11CredentialsNtNtCs7eCbzPz91QN_5serde2de11Deserialize11deserializeNtB6_9___VisitorNtB1q_7Visitor9visit_mappEBf_
FNDA:7,_RNvMNtNtCs4dveHeDtRhK_7backend7session18session_middlewareNtB2_4User12authenticate
FNDA:8,_RNvNtNtCs4dveHeDtRhK_7backend7session18session_middleware18session_middleware
FNDA:1,_RNvNtNtNtCs4dveHeDtRhK_7backend7session18session_middleware5testss_40test_user_authenticate_valid_credentials
FNDA:1,_RNvNtNtNtCs4dveHeDtRhK_7backend7session18session_middleware5testss_39test_user_authenticate_invalid_username
FNDA:1,_RNvNtNtNtCs4dveHeDtRhK_7backend7session18session_middleware5testss_39test_user_authenticate_invalid_password
FNDA:0,_RNvXNvXNvNtNtCs4dveHeDtRhK_7backend7session18session_middleware1__NtB7_11CredentialsNtNtCs7eCbzPz91QN_5serde2de11Deserialize11deserializeNtB2_14___FieldVisitorNtB1m_7Visitor9expecting
FNDA:0,_RINvXNvXNvNtNtCs4dveHeDtRhK_7backend7session18session_middleware1__NtB8_11CredentialsNtNtCs7eCbzPz91QN_5serde2de11Deserialize11deserializeNtB3_14___FieldVisitorNtB1n_7Visitor9visit_u64pEBc_
FNDA:0,_RINvXNvXNvNtNtCs4dveHeDtRhK_7backend7session18session_middleware1__NtB8_11CredentialsNtNtCs7eCbzPz91QN_5serde2de11Deserialize11deserializeNtB3_14___FieldVisitorNtB1n_7Visitor9visit_strpEBc_
FNDA:0,_RINvXNvXNvNtNtCs4dveHeDtRhK_7backend7session18session_middleware1__NtB8_11CredentialsNtNtCs7eCbzPz91QN_5serde2de11Deserialize11deserializeNtB3_14___FieldVisitorNtB1n_7Visitor11visit_bytespEBc_
FNDA:0,_RINvXs_NvXNvNtNtCs4dveHeDtRhK_7backend7session18session_middleware1__NtBa_11CredentialsNtNtCs7eCbzPz91QN_5serde2de11Deserialize11deserializeNtB5_7___FieldB1n_11deserializepEBe_
FNDA:0,_RNvXs0_NvXNvNtNtCs4dveHeDtRhK_7backend7session18session_middleware1__NtBa_11CredentialsNtNtCs7eCbzPz91QN_5serde2de11Deserialize11deserializeNtB5_9___VisitorNtB1p_7Visitor9expecting
FNDA:0,_RINvXs0_NvXNvNtNtCs4dveHeDtRhK_7backend7session18session_middleware1__NtBb_11CredentialsNtNtCs7eCbzPz91QN_5serde2de11Deserialize11deserializeNtB6_9___VisitorNtB1q_7Visitor9visit_seqpEBf_
FNDA:0,_RINvXs0_NvXNvNtNtCs4dveHeDtRhK_7backend7session18session_middleware1__NtBb_11CredentialsNtNtCs7eCbzPz91QN_5serde2de11Deserialize11deserializeNtB6_9___VisitorNtB1q_7Visitor9visit_mappEBf_
FNF:6
FNH:5
DA:9,0
DA:31,7
DA:32,7
DA:33,7
DA:34,7
DA:35,7
DA:36,7
DA:37,7
DA:38,2
DA:39,2
DA:40,2
DA:41,5
DA:42,5
DA:43,5
DA:44,1
DA:45,1
DA:46,1
DA:47,4
DA:48,4
DA:49,4
DA:50,4
DA:51,4
DA:52,4
DA:53,4
DA:54,7
DA:57,8
DA:58,8
DA:59,8
DA:60,8
DA:61,8
DA:62,8
DA:63,8
DA:64,8
DA:65,8
DA:66,8
DA:72,1
DA:73,1
DA:74,1
DA:75,1
DA:76,1
DA:77,1
DA:78,1
DA:79,1
DA:80,1
DA:81,1
DA:82,1
DA:83,1
DA:84,1
DA:85,1
DA:86,1
DA:87,1
DA:90,1
DA:91,1
DA:92,1
DA:93,1
DA:94,1
DA:95,1
DA:96,1
DA:97,1
DA:98,1
DA:99,1
DA:100,1
DA:101,1
DA:102,1
DA:103,1
DA:104,1
DA:105,1
DA:108,1
DA:109,1
DA:110,1
DA:111,1
DA:112,1
DA:113,1
DA:114,1
DA:115,1
DA:116,1
DA:117,1
DA:118,1
DA:119,1
DA:120,1
DA:121,1
BRF:0
BRH:0
LF:81
LH:80
end_of_record
SF:/Users/lukasz.celitan/Git/AstroX/src/backend/src/session/validate_session.rs
FN:25,_RNvNtNtNtCs4dveHeDtRhK_7backend7session16validate_session5tests12manual_error
FN:35,_RNvNtNtNtCs4dveHeDtRhK_7backend7session16validate_session5tests14manual_success
FN:46,_RNvNtNtNtCs4dveHeDtRhK_7backend7session16validate_session5testss_27test_validate_session_error
FN:62,_RNvNtNtNtCs4dveHeDtRhK_7backend7session16validate_session5testss_21test_validate_session
FN:4,_RNvNtNtCs4dveHeDtRhK_7backend7session16validate_session16validate_session
FN:25,_RNCNvNtNtNtCs4dveHeDtRhK_7backend7session16validate_session5tests12manual_error0B9_
FN:35,_RNCNvNtNtNtCs4dveHeDtRhK_7backend7session16validate_session5tests14manual_success0B9_
FN:46,_RNCNvNtNtNtCs4dveHeDtRhK_7backend7session16validate_session5testss_27test_validate_session_error0B9_
FN:62,_RNCNvNtNtNtCs4dveHeDtRhK_7backend7session16validate_session5testss_21test_validate_session0B9_
FNDA:1,_RNvNtNtNtCs4dveHeDtRhK_7backend7session16validate_session5tests12manual_error
FNDA:1,_RNvNtNtNtCs4dveHeDtRhK_7backend7session16validate_session5tests14manual_success
FNDA:1,_RNvNtNtNtCs4dveHeDtRhK_7backend7session16validate_session5testss_27test_validate_session_error
FNDA:1,_RNvNtNtNtCs4dveHeDtRhK_7backend7session16validate_session5testss_21test_validate_session
FNDA:6,_RNvNtNtCs4dveHeDtRhK_7backend7session16validate_session16validate_session
FNDA:1,_RNCNvNtNtNtCs4dveHeDtRhK_7backend7session16validate_session5tests12manual_error0B9_
FNDA:1,_RNCNvNtNtNtCs4dveHeDtRhK_7backend7session16validate_session5tests14manual_success0B9_
FNDA:1,_RNCNvNtNtNtCs4dveHeDtRhK_7backend7session16validate_session5testss_27test_validate_session_error0B9_
FNDA:1,_RNCNvNtNtNtCs4dveHeDtRhK_7backend7session16validate_session5testss_21test_validate_session0B9_
FNF:9
FNH:9
DA:4,6
DA:5,6
DA:6,6
DA:7,2
DA:8,2
DA:9,2
DA:10,2
DA:12,4
DA:14,6
DA:25,1
DA:26,1
DA:27,1
DA:28,1
DA:29,0
DA:31,1
DA:33,1
DA:35,1
DA:36,1
DA:37,1
DA:38,1
DA:39,1
DA:40,1
DA:42,0
DA:44,1
DA:46,2
DA:62,2
BRF:0
BRH:0
LF:30
LH:28
end_of_record
SF:/Users/lukasz.celitan/Git/AstroX/src/backend/src/ssr_routes/login.rs
FN:6,_RNCNvNtNtCs4dveHeDtRhK_7backend10ssr_routes5login10login_form0B7_
FN:6,_RNvNtNtCs4dveHeDtRhK_7backend10ssr_routes5login10login_form
FNDA:2,_RNCNvNtNtCs4dveHeDtRhK_7backend10ssr_routes5login10login_form0B7_
FNDA:2,_RNvNtNtCs4dveHeDtRhK_7backend10ssr_routes5login10login_form
FNF:2
FNH:2
DA:6,2
DA:7,2
DA:8,2
DA:9,0
DA:10,0
DA:11,2
DA:12,2
DA:13,2
DA:14,2
DA:15,2
DA:16,2
DA:17,2
DA:18,2
DA:19,2
DA:20,2
DA:21,2
DA:22,2
DA:23,2
DA:24,2
DA:25,2
DA:26,2
DA:27,2
DA:28,2
DA:29,2
DA:30,2
DA:31,2
DA:32,2
DA:33,2
DA:34,2
DA:35,2
DA:36,2
DA:37,2
DA:38,2
DA:39,2
DA:40,2
DA:41,2
DA:42,2
DA:43,2
DA:44,2
BRF:0
BRH:0
LF:40
LH:38
end_of_record
SF:/Users/lukasz.celitan/Git/AstroX/src/backend/src/ssr_routes/post_login.rs
FN:12,_RNvXNvXNvNtNtCs4dveHeDtRhK_7backend10ssr_routes10post_login1__NtB7_8FormDataNtNtCs7eCbzPz91QN_5serde2de11Deserialize11deserializeNtB2_14___FieldVisitorNtB1e_7Visitor9expecting
FN:12,_RINvXNvXNvNtNtCs4dveHeDtRhK_7backend10ssr_routes10post_login1__NtB8_8FormDataNtNtCs7eCbzPz91QN_5serde2de11Deserialize11deserializeNtB3_14___FieldVisitorNtB1f_7Visitor9visit_u64pEBc_
FN:12,_RINvXNvXNvNtNtCs4dveHeDtRhK_7backend10ssr_routes10post_login1__NtB8_8FormDataNtNtCs7eCbzPz91QN_5serde2de11Deserialize11deserializeNtB3_14___FieldVisitorNtB1f_7Visitor11visit_bytespEBc_
FN:12,_RNvXs0_NvXNvNtNtCs4dveHeDtRhK_7backend10ssr_routes10post_login1__NtBa_8FormDataNtNtCs7eCbzPz91QN_5serde2de11Deserialize11deserializeNtB5_9___VisitorNtB1h_7Visitor9expecting
FN:12,_RINvXs0_NvXNvNtNtCs4dveHeDtRhK_7backend10ssr_routes10post_login1__NtBb_8FormDataNtNtCs7eCbzPz91QN_5serde2de11Deserialize11deserializeNtB6_9___VisitorNtB1i_7Visitor9visit_seqpEBf_
FN:21,_RNCNvNtNtCs4dveHeDtRhK_7backend10ssr_routes10post_login10post_login0B7_
FN:69,_RINvNtNtCs4dveHeDtRhK_7backend10ssr_routes10post_login15error_chain_fmtNtB2_10LoginErrorEB6_
FN:12,_RINvXNvXNvNtNtCs4dveHeDtRhK_7backend10ssr_routes10post_login1__NtB8_8FormDataNtNtCs7eCbzPz91QN_5serde2de11Deserialize11deserializeNtB3_14___FieldVisitorNtB1f_7Visitor9visit_strNtNtB1f_5value5ErrorEBc_
FN:12,_RINvXs_NvXNvNtNtCs4dveHeDtRhK_7backend10ssr_routes10post_login1__NtBa_8FormDataNtNtCs7eCbzPz91QN_5serde2de11Deserialize11deserializeNtB5_7___FieldB1f_11deserializeNtNtCsam5mRkJF7PU_16serde_urlencoded2de4PartEBe_
FN:12,_RINvXs0_NvXNvNtNtCs4dveHeDtRhK_7backend10ssr_routes10post_login1__NtBb_8FormDataNtNtCs7eCbzPz91QN_5serde2de11Deserialize11deserializeNtB6_9___VisitorNtB1i_7Visitor9visit_mapINtNtB1i_5value15MapDeserializerNtNtCsam5mRkJF7PU_16serde_urlencoded2de12PartIteratorNtB2O_5ErrorEEBf_
FN:18,_RNvNtNtCs4dveHeDtRhK_7backend10ssr_routes10post_login10post_login
FN:53,_RNvNtNtCs4dveHeDtRhK_7backend10ssr_routes10post_login14login_redirect
FN:83,_RNvXNtNtCs4dveHeDtRhK_7backend10ssr_routes10post_loginNtB2_10LoginErrorNtNtCsliVzVx4luf9_4core3fmt5Debug3fmt
FNDA:0,_RNvXNvXNvNtNtCs4dveHeDtRhK_7backend10ssr_routes10post_login1__NtB7_8FormDataNtNtCs7eCbzPz91QN_5serde2de11Deserialize11deserializeNtB2_14___FieldVisitorNtB1e_7Visitor9expecting
FNDA:0,_RINvXNvXNvNtNtCs4dveHeDtRhK_7backend10ssr_routes10post_login1__NtB8_8FormDataNtNtCs7eCbzPz91QN_5serde2de11Deserialize11deserializeNtB3_14___FieldVisitorNtB1f_7Visitor9visit_u64pEBc_
FNDA:0,_RINvXNvXNvNtNtCs4dveHeDtRhK_7backend10ssr_routes10post_login1__NtB8_8FormDataNtNtCs7eCbzPz91QN_5serde2de11Deserialize11deserializeNtB3_14___FieldVisitorNtB1f_7Visitor11visit_bytespEBc_
FNDA:0,_RNvXs0_NvXNvNtNtCs4dveHeDtRhK_7backend10ssr_routes10post_login1__NtBa_8FormDataNtNtCs7eCbzPz91QN_5serde2de11Deserialize11deserializeNtB5_9___VisitorNtB1h_7Visitor9expecting
FNDA:0,_RINvXs0_NvXNvNtNtCs4dveHeDtRhK_7backend10ssr_routes10post_login1__NtBb_8FormDataNtNtCs7eCbzPz91QN_5serde2de11Deserialize11deserializeNtB6_9___VisitorNtB1i_7Visitor9visit_seqpEBf_
FNDA:4,_RNCNvNtNtCs4dveHeDtRhK_7backend10ssr_routes10post_login10post_login0B7_
FNDA:0,_RINvNtNtCs4dveHeDtRhK_7backend10ssr_routes10post_login15error_chain_fmtNtB2_10LoginErrorEB6_
FNDA:8,_RINvXNvXNvNtNtCs4dveHeDtRhK_7backend10ssr_routes10post_login1__NtB8_8FormDataNtNtCs7eCbzPz91QN_5serde2de11Deserialize11deserializeNtB3_14___FieldVisitorNtB1f_7Visitor9visit_strNtNtB1f_5value5ErrorEBc_
FNDA:8,_RINvXs_NvXNvNtNtCs4dveHeDtRhK_7backend10ssr_routes10post_login1__NtBa_8FormDataNtNtCs7eCbzPz91QN_5serde2de11Deserialize11deserializeNtB5_7___FieldB1f_11deserializeNtNtCsam5mRkJF7PU_16serde_urlencoded2de4PartEBe_
FNDA:4,_RINvXs0_NvXNvNtNtCs4dveHeDtRhK_7backend10ssr_routes10post_login1__NtBb_8FormDataNtNtCs7eCbzPz91QN_5serde2de11Deserialize11deserializeNtB6_9___VisitorNtB1i_7Visitor9visit_mapINtNtB1i_5value15MapDeserializerNtNtCsam5mRkJF7PU_16serde_urlencoded2de12PartIteratorNtB2O_5ErrorEEBf_
FNDA:4,_RNvNtNtCs4dveHeDtRhK_7backend10ssr_routes10post_login10post_login
FNDA:1,_RNvNtNtCs4dveHeDtRhK_7backend10ssr_routes10post_login14login_redirect
FNDA:0,_RNvXNtNtCs4dveHeDtRhK_7backend10ssr_routes10post_loginNtB2_10LoginErrorNtNtCsliVzVx4luf9_4core3fmt5Debug3fmt
FNF:6
FNH:4
DA:12,12
DA:18,4
DA:19,4
DA:20,4
DA:21,4
DA:22,4
DA:23,4
DA:24,4
DA:25,4
DA:26,4
DA:27,4
DA:28,3
DA:29,3
DA:30,3
DA:31,3
DA:32,3
DA:33,3
DA:34,3
DA:35,0
DA:36,0
DA:37,0
DA:38,0
DA:39,0
DA:43,1
DA:44,1
DA:45,1
DA:46,0
DA:48,1
DA:51,4
DA:53,1
DA:54,1
DA:55,1
DA:56,1
DA:57,1
DA:58,1
DA:59,1
DA:69,0
DA:70,0
DA:71,0
DA:72,0
DA:73,0
DA:74,0
DA:75,0
DA:76,0
DA:77,0
DA:79,0
DA:80,0
DA:83,0
DA:84,0
DA:85,0
BRF:0
BRH:0
LF:51
LH:31
end_of_record